; Function Attrs: mustprogress uwtable
define hidden noundef i32 @_ZN4cvc58internal6theory11quantifiers11TermDbSygus14getAnchorDepthENS0_12NodeTemplateILb1EEE(ptr nocapture noundef readonly %n) local_unnamed_addr #3 align 2 personality ptr @__gxx_personality_v0 {
entry:
  %agg.tmp = alloca %"class.cvc5::internal::NodeTemplate", align 8
  %0 = load ptr, ptr %n, align 8
  %d_kind.i = getelementptr inbounds i8, ptr %0, i64 8
  %bf.load.i = load i16, ptr %d_kind.i, align 8
  %bf.clear.i = and i16 %bf.load.i, 1023
  %cmp = icmp eq i16 %bf.clear.i, 218
  br i1 %cmp, label %if.then, label %return

if.then:                                          ; preds = %entry
  tail call void @llvm.experimental.noalias.scope.decl(metadata !137)
  %call2.i.i.i = tail call noundef i32 @_ZN4cvc58internal4kind10metaKindOfENS1_6Kind_tE(i32 noundef 218), !noalias !137
  %cmp.i.i = icmp eq i32 %call2.i.i.i, 2
  %d_children.i.i = getelementptr inbounds i8, ptr %0, i64 16
  %idxprom.i.i = zext i1 %cmp.i.i to i64
  %arrayidx.i.i = getelementptr inbounds [0 x ptr], ptr %d_children.i.i, i64 0, i64 %idxprom.i.i
  %1 = load ptr, ptr %arrayidx.i.i, align 8, !noalias !137
  store ptr %1, ptr %agg.tmp, align 8, !alias.scope !137
  %bf.load.i.i.i = load i64, ptr %1, align 8, !noalias !137
  %bf.lshr.i.i.i = lshr i64 %bf.load.i.i.i, 40
  %2 = trunc i64 %bf.lshr.i.i.i to i32
  %bf.cast.i.i.i = and i32 %2, 1048575
  %cmp.i.i.i = icmp ult i32 %bf.cast.i.i.i, 1048574
  br i1 %cmp.i.i.i, label %if.then.i.i.i, label %if.else.i.i.i

if.then.i.i.i:                                    ; preds = %if.then
  %bf.value.i.i.i = add i64 %bf.load.i.i.i, 1099511627776
  %bf.shl.i.i.i = and i64 %bf.value.i.i.i, 1152920405095219200
  %bf.clear7.i.i.i = and i64 %bf.load.i.i.i, -1152920405095219201
  %bf.set.i.i.i = or disjoint i64 %bf.shl.i.i.i, %bf.clear7.i.i.i
  store i64 %bf.set.i.i.i, ptr %1, align 8, !noalias !137
  br label %_ZNK4cvc58internal12NodeTemplateILb1EEixEi.exit

if.else.i.i.i:                                    ; preds = %if.then
  %cmp12.i.i.i = icmp eq i32 %bf.cast.i.i.i, 1048574
  br i1 %cmp12.i.i.i, label %if.then13.i.i.i, label %_ZNK4cvc58internal12NodeTemplateILb1EEixEi.exit

if.then13.i.i.i:                                  ; preds = %if.else.i.i.i
  %bf.set23.i.i.i = or i64 %bf.load.i.i.i, 1152920405095219200
  store i64 %bf.set23.i.i.i, ptr %1, align 8, !noalias !137
  tail call void @_ZN4cvc58internal4expr9NodeValue20markRefCountMaxedOutEv(ptr noundef nonnull align 8 dereferenceable(16) %1), !noalias !137
  br label %_ZNK4cvc58internal12NodeTemplateILb1EEixEi.exit

_ZNK4cvc58internal12NodeTemplateILb1EEixEi.exit:  ; preds = %if.then.i.i.i, %if.else.i.i.i, %if.then13.i.i.i
  %call1 = invoke noundef i32 @_ZN4cvc58internal6theory11quantifiers11TermDbSygus14getAnchorDepthENS0_12NodeTemplateILb1EEE(ptr noundef nonnull %agg.tmp)
          to label %invoke.cont unwind label %lpad

invoke.cont:                                      ; preds = %_ZNK4cvc58internal12NodeTemplateILb1EEixEi.exit
  %add = add i32 %call1, 1
  %bf.load.i.i = load i64, ptr %1, align 8
  %3 = and i64 %bf.load.i.i, 1152920405095219200
  %cmp.not.i.i = icmp eq i64 %3, 1152920405095219200
  br i1 %cmp.not.i.i, label %return, label %if.then.i.i

if.then.i.i:                                      ; preds = %invoke.cont
  %bf.value.i.i = add i64 %bf.load.i.i, 1152920405095219200
  %bf.shl.i.i = and i64 %bf.value.i.i, 1152920405095219200
  %bf.clear7.i.i = and i64 %bf.load.i.i, -1152920405095219201
  %bf.set.i.i = or disjoint i64 %bf.shl.i.i, %bf.clear7.i.i
  store i64 %bf.set.i.i, ptr %1, align 8
  %cmp12.i.i = icmp eq i64 %bf.shl.i.i, 0
  br i1 %cmp12.i.i, label %if.then13.i.i, label %return

if.then13.i.i:                                    ; preds = %if.then.i.i
  invoke void @_ZN4cvc58internal4expr9NodeValue15markForDeletionEv(ptr noundef nonnull align 8 dereferenceable(16) %1)
          to label %return unwind label %terminate.lpad.i

terminate.lpad.i:                                 ; preds = %if.then13.i.i
  %4 = landingpad { ptr, i32 }
          catch ptr null
  %5 = extractvalue { ptr, i32 } %4, 0
  tail call void @__clang_call_terminate(ptr %5) #23
  unreachable

lpad:                                             ; preds = %_ZNK4cvc58internal12NodeTemplateILb1EEixEi.exit
  %6 = landingpad { ptr, i32 }
          cleanup
  call void @_ZN4cvc58internal12NodeTemplateILb1EED2Ev(ptr noundef nonnull align 8 dereferenceable(8) %agg.tmp) #22
  resume { ptr, i32 } %6

return:                                           ; preds = %if.then13.i.i, %if.then.i.i, %invoke.cont, %entry
  %retval.0 = phi i32 [ 0, %entry ], [ %add, %invoke.cont ], [ %add, %if.then.i.i ], [ %add, %if.then13.i.i ]
  ret i32 %retval.0
}